target datalayout = "e-m:e-p270:32:32-p271:32:32-p272:64:64-i64:64-i128:128-f80:128-n8:16:32:64-S128"
target triple = "x86_64-pc-linux-gnu"

%struct._php_core_globals = type { i64, i8, i8, i8, i8, i8, i8, i8, i8, ptr, ptr, i64, i64, i64, ptr, ptr, ptr, ptr, ptr, i8, ptr, ptr, ptr, ptr, i64, ptr, ptr, ptr, ptr, ptr, ptr, ptr, %struct._arg_separators, ptr, %struct._zend_array, i16, i8, i8, %struct._zend_llist, [6 x %struct._zval_struct], i8, i8, i8, i8, i8, ptr, ptr, i64, [8 x i8], i8, i8, i8, i8, i8, i8, i32, i32, ptr, ptr, ptr, ptr, i64, i64, ptr, i64, ptr, ptr, i8, i8, i8, i8, i8, i8, i64, ptr, i64, i64 }
%struct._arg_separators = type { ptr, ptr }
%struct._zend_array = type { %struct._zend_refcounted_h, %union.anon.0, i32, %union.anon.1, i32, i32, i32, i32, i64, ptr }
%struct._zend_refcounted_h = type { i32, %union.anon }
%union.anon = type { i32 }
%union.anon.0 = type { i32 }
%union.anon.1 = type { ptr }
%struct._zend_llist = type { ptr, ptr, i64, i64, ptr, i8, ptr }
%struct._zval_struct = type { %union._zend_value, %union.anon.3, %union.anon.6 }
%union._zend_value = type { i64 }
%union.anon.3 = type { i32 }
%union.anon.6 = type { i32 }
%struct._sapi_globals_struct = type { ptr, %struct.sapi_request_info, %struct.sapi_headers_struct, i64, i8, i8, %struct.stat, ptr, ptr, ptr, i64, i32, i8, double, %struct._zend_array, %struct._zval_struct, %struct._zend_fcall_info_cache, %struct.sapi_request_parse_body_context }
%struct.sapi_request_info = type { ptr, ptr, ptr, i64, ptr, ptr, ptr, ptr, i8, i8, i8, ptr, ptr, ptr, ptr, ptr, ptr, ptr, i32, i32, ptr, i32 }
%struct.sapi_headers_struct = type { %struct._zend_llist, i32, i8, ptr, ptr }
%struct.stat = type { i64, i64, i64, i32, i32, i32, i32, i64, i64, i64, i64, %struct.timespec, %struct.timespec, %struct.timespec, [3 x i64] }
%struct.timespec = type { i64, i64 }
%struct._zend_fcall_info_cache = type { ptr, ptr, ptr, ptr, ptr }
%struct.sapi_request_parse_body_context = type { i8, [5 x %struct.anon.7] }
%struct.anon.7 = type { i8, i64 }
%struct.tm = type { i32, i32, i32, i32, i32, i32, i32, i32, i32, i64, ptr }

@.str.3 = private unnamed_addr constant [1 x i8] zeroinitializer, align 1
@.str.4 = private unnamed_addr constant [3 x i8] c"%s\00", align 1
@core_globals = dso_local global %struct._php_core_globals zeroinitializer, align 8
@sapi_globals = external global %struct._sapi_globals_struct, align 8
@stderr = external global ptr, align 8
@.str.87 = private unnamed_addr constant [17 x i8] c"function.include\00", align 1
@.str.88 = private unnamed_addr constant [54 x i8] c"Failed opening '%s' for inclusion (include_path='%s')\00", align 1
@.str.89 = private unnamed_addr constant [49 x i8] c"Failed opening required '%s' (include_path='%s')\00", align 1
@.str.90 = private unnamed_addr constant [37 x i8] c"Failed opening '%s' for highlighting\00", align 1
@.str.91 = private unnamed_addr constant [21 x i8] c"[%s]  Script:  '%s'\0A\00", align 1
@.str.92 = private unnamed_addr constant [2 x i8] c"-\00", align 1
@.str.93 = private unnamed_addr constant [23 x i8] c"[null]  Script:  '%s'\0A\00", align 1

; Function Attrs: nounwind uwtable
define internal void @php_message_handler_for_zend(i64 noundef %0, ptr noundef %1) #1 {
  %3 = alloca i64, align 8
  %4 = alloca ptr, align 8
  %5 = alloca ptr, align 8
  %6 = alloca ptr, align 8
  %7 = alloca ptr, align 8
  %8 = alloca ptr, align 8
  %9 = alloca %struct.tm, align 8
  %10 = alloca i64, align 8
  %11 = alloca ptr, align 8
  %12 = alloca [52 x i8], align 16
  %13 = alloca [4096 x i8], align 16
  store i64 %0, ptr %3, align 8, !tbaa !15
  store ptr %1, ptr %4, align 8, !tbaa !56
  %14 = load i64, ptr %3, align 8, !tbaa !15
  switch i64 %14, label %86 [
    i64 1, label %15
    i64 2, label %28
    i64 3, label %41
    i64 4, label %47
    i64 5, label %47
    i64 7, label %86
    i64 6, label %48
  ]

15:                                               ; preds = %2
  call void @llvm.lifetime.start.p0(i64 8, ptr %5) #18
  %16 = load ptr, ptr %4, align 8, !tbaa !56
  %17 = call noalias ptr @_estrdup(ptr noundef %16)
  store ptr %17, ptr %5, align 8, !tbaa !14
  %18 = load ptr, ptr %5, align 8, !tbaa !14
  %19 = call ptr @php_strip_url_passwd(ptr noundef %18)
  %20 = load ptr, ptr getelementptr inbounds nuw (%struct._php_core_globals, ptr @core_globals, i32 0, i32 17), align 8, !tbaa !220
  %21 = icmp ne ptr %20, null
  br i1 %21, label %22, label %24

22:                                               ; preds = %15
  %23 = load ptr, ptr getelementptr inbounds nuw (%struct._php_core_globals, ptr @core_globals, i32 0, i32 17), align 8, !tbaa !220
  br label %25

24:                                               ; preds = %15
  br label %25

25:                                               ; preds = %24, %22
  %26 = phi ptr [ %23, %22 ], [ @.str.3, %24 ]
  call void (ptr, i32, ptr, ...) @php_error_docref(ptr noundef @.str.87, i32 noundef 2, ptr noundef @.str.88, ptr noundef %19, ptr noundef %26)
  %27 = load ptr, ptr %5, align 8, !tbaa !14
  call void @_efree(ptr noundef %27)
  call void @llvm.lifetime.end.p0(i64 8, ptr %5) #18
  br label %86

28:                                               ; preds = %2
  call void @llvm.lifetime.start.p0(i64 8, ptr %6) #18
  %29 = load ptr, ptr %4, align 8, !tbaa !56
  %30 = call noalias ptr @_estrdup(ptr noundef %29)
  store ptr %30, ptr %6, align 8, !tbaa !14
  %31 = load ptr, ptr %6, align 8, !tbaa !14
  %32 = call ptr @php_strip_url_passwd(ptr noundef %31)
  %33 = load ptr, ptr getelementptr inbounds nuw (%struct._php_core_globals, ptr @core_globals, i32 0, i32 17), align 8, !tbaa !220
  %34 = icmp ne ptr %33, null
  br i1 %34, label %35, label %37

35:                                               ; preds = %28
  %36 = load ptr, ptr getelementptr inbounds nuw (%struct._php_core_globals, ptr @core_globals, i32 0, i32 17), align 8, !tbaa !220
  br label %38

37:                                               ; preds = %28
  br label %38

38:                                               ; preds = %37, %35
  %39 = phi ptr [ %36, %35 ], [ @.str.3, %37 ]
  call void (ptr, ptr, ...) @zend_throw_error(ptr noundef null, ptr noundef @.str.89, ptr noundef %32, ptr noundef %39)
  %40 = load ptr, ptr %6, align 8, !tbaa !14
  call void @_efree(ptr noundef %40)
  call void @llvm.lifetime.end.p0(i64 8, ptr %6) #18
  br label %86

41:                                               ; preds = %2
  call void @llvm.lifetime.start.p0(i64 8, ptr %7) #18
  %42 = load ptr, ptr %4, align 8, !tbaa !56
  %43 = call noalias ptr @_estrdup(ptr noundef %42)
  store ptr %43, ptr %7, align 8, !tbaa !14
  %44 = load ptr, ptr %7, align 8, !tbaa !14
  %45 = call ptr @php_strip_url_passwd(ptr noundef %44)
  call void (ptr, i32, ptr, ...) @php_error_docref(ptr noundef null, i32 noundef 2, ptr noundef @.str.90, ptr noundef %45)
  %46 = load ptr, ptr %7, align 8, !tbaa !14
  call void @_efree(ptr noundef %46)
  call void @llvm.lifetime.end.p0(i64 8, ptr %7) #18
  br label %86

47:                                               ; preds = %2, %2
  br label %86

48:                                               ; preds = %2
  call void @llvm.lifetime.start.p0(i64 8, ptr %8) #18
  call void @llvm.lifetime.start.p0(i64 56, ptr %9) #18
  call void @llvm.lifetime.start.p0(i64 8, ptr %10) #18
  call void @llvm.lifetime.start.p0(i64 8, ptr %11) #18
  call void @llvm.lifetime.start.p0(i64 52, ptr %12) #18
  call void @llvm.lifetime.start.p0(i64 4096, ptr %13) #18
  %49 = call i64 @time(ptr noundef %10) #18
  %50 = call ptr @localtime_r(ptr noundef %10, ptr noundef %9) #18
  store ptr %50, ptr %8, align 8, !tbaa !221
  %51 = load ptr, ptr %8, align 8, !tbaa !221
  %52 = getelementptr inbounds [52 x i8], ptr %12, i64 0, i64 0
  %53 = call ptr @asctime_r(ptr noundef %51, ptr noundef %52) #18
  store ptr %53, ptr %11, align 8, !tbaa !14
  %54 = load ptr, ptr %11, align 8, !tbaa !14
  %55 = icmp ne ptr %54, null
  br i1 %55, label %56, label %72

56:                                               ; preds = %48
  %57 = load ptr, ptr %11, align 8, !tbaa !14
  %58 = load ptr, ptr %11, align 8, !tbaa !14
  %59 = call i64 @strlen(ptr noundef %58) #19
  %60 = sub i64 %59, 1
  %61 = getelementptr inbounds nuw i8, ptr %57, i64 %60
  store i8 0, ptr %61, align 1, !tbaa !27
  %62 = getelementptr inbounds [4096 x i8], ptr %13, i64 0, i64 0
  %63 = load ptr, ptr %11, align 8, !tbaa !14
  %64 = load ptr, ptr getelementptr inbounds nuw (%struct.sapi_request_info, ptr getelementptr inbounds nuw (%struct._sapi_globals_struct, ptr @sapi_globals, i32 0, i32 1), i32 0, i32 4), align 8, !tbaa !223
  %65 = icmp ne ptr %64, null
  br i1 %65, label %66, label %68

66:                                               ; preds = %56
  %67 = load ptr, ptr getelementptr inbounds nuw (%struct.sapi_request_info, ptr getelementptr inbounds nuw (%struct._sapi_globals_struct, ptr @sapi_globals, i32 0, i32 1), i32 0, i32 4), align 8, !tbaa !223
  br label %69

68:                                               ; preds = %56
  br label %69

69:                                               ; preds = %68, %66
  %70 = phi ptr [ %67, %66 ], [ @.str.92, %68 ]
  %71 = call i32 (ptr, i64, ptr, ...) @ap_php_snprintf(ptr noundef %62, i64 noundef 4096, ptr noundef @.str.91, ptr noundef %63, ptr noundef %70)
  br label %82

72:                                               ; preds = %48
  %73 = getelementptr inbounds [4096 x i8], ptr %13, i64 0, i64 0
  %74 = load ptr, ptr getelementptr inbounds nuw (%struct.sapi_request_info, ptr getelementptr inbounds nuw (%struct._sapi_globals_struct, ptr @sapi_globals, i32 0, i32 1), i32 0, i32 4), align 8, !tbaa !223
  %75 = icmp ne ptr %74, null
  br i1 %75, label %76, label %78

76:                                               ; preds = %72
  %77 = load ptr, ptr getelementptr inbounds nuw (%struct.sapi_request_info, ptr getelementptr inbounds nuw (%struct._sapi_globals_struct, ptr @sapi_globals, i32 0, i32 1), i32 0, i32 4), align 8, !tbaa !223
  br label %79

78:                                               ; preds = %72
  br label %79

79:                                               ; preds = %78, %76
  %80 = phi ptr [ %77, %76 ], [ @.str.92, %78 ]
  %81 = call i32 (ptr, i64, ptr, ...) @ap_php_snprintf(ptr noundef %73, i64 noundef 4096, ptr noundef @.str.93, ptr noundef %80)
  br label %82

82:                                               ; preds = %79, %69
  %83 = load ptr, ptr @stderr, align 8, !tbaa !185
  %84 = getelementptr inbounds [4096 x i8], ptr %13, i64 0, i64 0
  %85 = call i32 (ptr, ptr, ...) @fprintf(ptr noundef %83, ptr noundef @.str.4, ptr noundef %84) #18
  call void @llvm.lifetime.end.p0(i64 4096, ptr %13) #18
  call void @llvm.lifetime.end.p0(i64 52, ptr %12) #18
  call void @llvm.lifetime.end.p0(i64 8, ptr %11) #18
  call void @llvm.lifetime.end.p0(i64 8, ptr %10) #18
  call void @llvm.lifetime.end.p0(i64 56, ptr %9) #18
  call void @llvm.lifetime.end.p0(i64 8, ptr %8) #18
  br label %86

86:                                               ; preds = %2, %82, %2, %47, %41, %38, %25
  ret void
}