; Function Attrs: nounwind uwtable
define internal void @php_message_handler_for_zend(i64 noundef %0, ptr noundef %1) #2 {
  %3 = alloca %struct.tm, align 8
  %4 = alloca i64, align 8
  %5 = alloca [52 x i8], align 16
  %6 = alloca [4096 x i8], align 16
  switch i64 %0, label %37 [
    i64 1, label %7
    i64 2, label %12
    i64 3, label %17
    i64 6, label %20
  ]

7:                                                ; preds = %2
  %8 = tail call noalias ptr @_estrdup(ptr noundef %1) #28
  %9 = tail call ptr @php_strip_url_passwd(ptr noundef %8) #28
  %10 = load ptr, ptr getelementptr inbounds nuw (i8, ptr @core_globals, i64 80), align 8, !tbaa !204
  %.not17 = icmp eq ptr %10, null
  %11 = select i1 %.not17, ptr @.str.3, ptr %10
  tail call void (ptr, i32, ptr, ...) @php_error_docref(ptr noundef nonnull @.str.87, i32 noundef 2, ptr noundef nonnull @.str.88, ptr noundef %9, ptr noundef nonnull %11)
  tail call void @_efree(ptr noundef %8) #28
  br label %37

12:                                               ; preds = %2
  %13 = tail call noalias ptr @_estrdup(ptr noundef %1) #28
  %14 = tail call ptr @php_strip_url_passwd(ptr noundef %13) #28
  %15 = load ptr, ptr getelementptr inbounds nuw (i8, ptr @core_globals, i64 80), align 8, !tbaa !204
  %.not16 = icmp eq ptr %15, null
  %16 = select i1 %.not16, ptr @.str.3, ptr %15
  tail call void (ptr, ptr, ...) @zend_throw_error(ptr noundef null, ptr noundef nonnull @.str.89, ptr noundef %14, ptr noundef nonnull %16) #28
  tail call void @_efree(ptr noundef %13) #28
  br label %37

17:                                               ; preds = %2
  %18 = tail call noalias ptr @_estrdup(ptr noundef %1) #28
  %19 = tail call ptr @php_strip_url_passwd(ptr noundef %18) #28
  tail call void (ptr, i32, ptr, ...) @php_error_docref(ptr noundef null, i32 noundef 2, ptr noundef nonnull @.str.90, ptr noundef %19)
  tail call void @_efree(ptr noundef %18) #28
  br label %37

20:                                               ; preds = %2
  call void @llvm.lifetime.start.p0(i64 56, ptr nonnull %3) #28
  call void @llvm.lifetime.start.p0(i64 8, ptr nonnull %4) #28
  call void @llvm.lifetime.start.p0(i64 52, ptr nonnull %5) #28
  call void @llvm.lifetime.start.p0(i64 4096, ptr nonnull %6) #28
  %21 = call i64 @time(ptr noundef nonnull %4) #28
  %22 = call ptr @localtime_r(ptr noundef nonnull %4, ptr noundef nonnull %3) #28
  %23 = call ptr @asctime_r(ptr noundef %22, ptr noundef nonnull %5) #28
  %.not = icmp eq ptr %23, null
  br i1 %.not, label %31, label %24

24:                                               ; preds = %20
  %25 = call i64 @strlen(ptr noundef nonnull dereferenceable(1) %23) #29
  %26 = getelementptr i8, ptr %23, i64 %25
  %27 = getelementptr i8, ptr %26, i64 -1
  store i8 0, ptr %27, align 1, !tbaa !24
  %28 = load ptr, ptr getelementptr inbounds nuw (i8, ptr @sapi_globals, i64 40), align 8, !tbaa !205
  %.not15 = icmp eq ptr %28, null
  %29 = select i1 %.not15, ptr @.str.92, ptr %28
  %30 = call i32 (ptr, i64, ptr, ...) @ap_php_snprintf(ptr noundef nonnull %6, i64 noundef 4096, ptr noundef nonnull @.str.91, ptr noundef nonnull %23, ptr noundef nonnull %29) #28
  br label %35

31:                                               ; preds = %20
  %32 = load ptr, ptr getelementptr inbounds nuw (i8, ptr @sapi_globals, i64 40), align 8, !tbaa !205
  %.not14 = icmp eq ptr %32, null
  %33 = select i1 %.not14, ptr @.str.92, ptr %32
  %34 = call i32 (ptr, i64, ptr, ...) @ap_php_snprintf(ptr noundef nonnull %6, i64 noundef 4096, ptr noundef nonnull @.str.93, ptr noundef nonnull %33) #28
  br label %35

35:                                               ; preds = %31, %24
  %36 = load ptr, ptr @stderr, align 8, !tbaa !170
  %fputs = call i32 @fputs(ptr nonnull %6, ptr %36) #32
  call void @llvm.lifetime.end.p0(i64 4096, ptr nonnull %6) #28
  call void @llvm.lifetime.end.p0(i64 52, ptr nonnull %5) #28
  call void @llvm.lifetime.end.p0(i64 8, ptr nonnull %4) #28
  call void @llvm.lifetime.end.p0(i64 56, ptr nonnull %3) #28
  br label %37

37:                                               ; preds = %35, %17, %12, %7, %2
  ret void
}